	.file	"primo.c"
	.text
	.section	.rodata
.LC0:
	.string	""
.LC1:
	.string	"%d "
.LC2:
	.string	"primo"
.LC3:
	.string	"%s"
	.text
	.globl	main
	.type	main, @function
main:
.LFB0:
	.cfi_startproc
	pushq	%rbp
	.cfi_def_cfa_offset 16
	.cfi_offset 6, -16
	movq	%rsp, %rbp
	.cfi_def_cfa_register 6
	subq	$16, %rsp
	leaq	.LC0(%rip), %rax
	movl	%eax, %edi
	call	srand@PLT
	call	rand@PLT
	movslq	%eax, %rdx
	imulq	$274877907, %rdx, %rdx
	shrq	$32, %rdx
	movl	%edx, %ecx
	sarl	$6, %ecx
	cltd
	subl	%edx, %ecx
	movl	%ecx, %edx
	movl	%edx, -4(%rbp)
	movl	-4(%rbp), %edx
	imull	$1000, %edx, %edx
	subl	%edx, %eax
	movl	%eax, -4(%rbp)
	movl	-4(%rbp), %eax
	movl	%eax, %esi
	leaq	.LC1(%rip), %rdi
	movl	$0, %eax
	call	printf@PLT
	movl	-4(%rbp), %eax
	movl	%eax, %edi
	call	IsPrime
	testl	%eax, %eax
	je	.L2
	leaq	.LC2(%rip), %rsi
	leaq	.LC3(%rip), %rdi
	movl	$0, %eax
	call	printf@PLT
.L2:
	movl	$10, %edi
	call	putchar@PLT
	nop
	leave
	.cfi_def_cfa 7, 8
	ret
	.cfi_endproc
.LFE0:
	.size	main, .-main
	.globl	IsPrime
	.type	IsPrime, @function
IsPrime:
.LFB1:
	.cfi_startproc
	pushq	%rbp
	.cfi_def_cfa_offset 16
	.cfi_offset 6, -16
	movq	%rsp, %rbp
	.cfi_def_cfa_register 6
	movl	%edi, -20(%rbp)
	movl	$2, -8(%rbp)
	movl	$1, -4(%rbp)
	jmp	.L4
.L7:
	movl	-20(%rbp), %eax
	cltd
	idivl	-8(%rbp)
	movl	%edx, %eax
	testl	%eax, %eax
	jne	.L5
	movl	$0, -4(%rbp)
	jmp	.L6
.L5:
	addl	$1, -8(%rbp)
.L4:
	movl	-8(%rbp), %eax
	cmpl	-20(%rbp), %eax
	jl	.L7
.L6:
	movl	-4(%rbp), %eax
	popq	%rbp
	.cfi_def_cfa 7, 8
	ret
	.cfi_endproc
.LFE1:
	.size	IsPrime, .-IsPrime
	.ident	"GCC: (GNU) 9.3.0"
	.section	.note.GNU-stack,"",@progbits
